target datalayout = "e-m:e-p270:32:32-p271:32:32-p272:64:64-i64:64-i128:128-f80:128-n8:16:32:64-S128"
target triple = "x86_64-pc-linux-gnu"

%"struct.vcpkg::Path" = type { %"class.std::__cxx11::basic_string" }
%"class.std::vector" = type { %"struct.std::_Vector_base" }
%"struct.std::_Vector_base" = type { %"struct.std::_Vector_base<std::__cxx11::basic_string<char>, std::allocator<std::__cxx11::basic_string<char>>>::_Vector_impl" }
%"struct.std::_Vector_base<std::__cxx11::basic_string<char>, std::allocator<std::__cxx11::basic_string<char>>>::_Vector_impl" = type { %"struct.std::_Vector_base<std::__cxx11::basic_string<char>, std::allocator<std::__cxx11::basic_string<char>>>::_Vector_impl_data" }
%"struct.std::_Vector_base<std::__cxx11::basic_string<char>, std::allocator<std::__cxx11::basic_string<char>>>::_Vector_impl_data" = type { ptr, ptr, ptr }
%"class.std::__cxx11::basic_string" = type { %"struct.std::__cxx11::basic_string<char>::_Alloc_hider", i64, %union.anon }
%"struct.std::__cxx11::basic_string<char>::_Alloc_hider" = type { ptr }
%union.anon = type { i64, [8 x i8] }
%"struct.vcpkg::Optional.16" = type { %"struct.vcpkg::details::OptionalStorage.17" }
%"struct.vcpkg::details::OptionalStorage.17" = type { %"struct.vcpkg::details::OptionalStorageDtor.18" }
%"struct.vcpkg::details::OptionalStorageDtor.18" = type { i8, %union.anon.19 }
%union.anon.19 = type { %"class.std::__cxx11::basic_string" }
%"struct.vcpkg::Configuration" = type { %"struct.vcpkg::Optional.113", %"class.std::vector.130", %"struct.vcpkg::Json::Object", %"struct.vcpkg::Json::Object", %"class.std::vector", %"class.std::vector" }
%"struct.vcpkg::Optional.113" = type { %"struct.vcpkg::details::OptionalStorage.114" }
%"struct.vcpkg::details::OptionalStorage.114" = type { %"struct.vcpkg::details::OptionalStorageDtor.115" }
%"struct.vcpkg::details::OptionalStorageDtor.115" = type { i8, %union.anon.116 }
%union.anon.116 = type { %"struct.vcpkg::RegistryConfig" }
%"struct.vcpkg::RegistryConfig" = type { %"struct.vcpkg::Optional.16", %"struct.vcpkg::Optional.16", %"struct.vcpkg::Optional.16", %"struct.vcpkg::Optional.16", %"struct.vcpkg::Optional", %"struct.vcpkg::Optional.16", %"struct.vcpkg::Optional.16", %"struct.vcpkg::Optional.117", %"struct.vcpkg::Optional.121" }
%"struct.vcpkg::Optional" = type { %"struct.vcpkg::details::OptionalStorage" }
%"struct.vcpkg::details::OptionalStorage" = type { %"struct.vcpkg::details::OptionalStorageDtor" }
%"struct.vcpkg::details::OptionalStorageDtor" = type { i8, %union.anon.15 }
%union.anon.15 = type { %"struct.vcpkg::Path" }
%"struct.vcpkg::Optional.117" = type { %"struct.vcpkg::details::OptionalStorage.118" }
%"struct.vcpkg::details::OptionalStorage.118" = type { %"struct.vcpkg::details::OptionalStorageDtor.119" }
%"struct.vcpkg::details::OptionalStorageDtor.119" = type { i8, %union.anon.120 }
%union.anon.120 = type { %"class.std::vector" }
%"struct.vcpkg::Optional.121" = type { %"struct.vcpkg::details::OptionalStorage.122" }
%"struct.vcpkg::details::OptionalStorage.122" = type { %"struct.vcpkg::details::OptionalStorageDtor.123" }
%"struct.vcpkg::details::OptionalStorageDtor.123" = type { i8, %union.anon.124 }
%union.anon.124 = type { %"class.std::vector.125" }
%"class.std::vector.125" = type { %"struct.std::_Vector_base.126" }
%"struct.std::_Vector_base.126" = type { %"struct.std::_Vector_base<vcpkg::PackagePatternDeclaration, std::allocator<vcpkg::PackagePatternDeclaration>>::_Vector_impl" }
%"struct.std::_Vector_base<vcpkg::PackagePatternDeclaration, std::allocator<vcpkg::PackagePatternDeclaration>>::_Vector_impl" = type { %"struct.std::_Vector_base<vcpkg::PackagePatternDeclaration, std::allocator<vcpkg::PackagePatternDeclaration>>::_Vector_impl_data" }
%"struct.std::_Vector_base<vcpkg::PackagePatternDeclaration, std::allocator<vcpkg::PackagePatternDeclaration>>::_Vector_impl_data" = type { ptr, ptr, ptr }
%"class.std::vector.130" = type { %"struct.std::_Vector_base.131" }
%"struct.std::_Vector_base.131" = type { %"struct.std::_Vector_base<vcpkg::RegistryConfig, std::allocator<vcpkg::RegistryConfig>>::_Vector_impl" }
%"struct.std::_Vector_base<vcpkg::RegistryConfig, std::allocator<vcpkg::RegistryConfig>>::_Vector_impl" = type { %"struct.std::_Vector_base<vcpkg::RegistryConfig, std::allocator<vcpkg::RegistryConfig>>::_Vector_impl_data" }
%"struct.std::_Vector_base<vcpkg::RegistryConfig, std::allocator<vcpkg::RegistryConfig>>::_Vector_impl_data" = type { ptr, ptr, ptr }
%"struct.vcpkg::Json::Object" = type { %"class.std::vector.108" }
%"class.std::vector.108" = type { %"struct.std::_Vector_base.109" }
%"struct.std::_Vector_base.109" = type { %"struct.std::_Vector_base<std::pair<std::__cxx11::basic_string<char>, vcpkg::Json::Value>, std::allocator<std::pair<std::__cxx11::basic_string<char>, vcpkg::Json::Value>>>::_Vector_impl" }
%"struct.std::_Vector_base<std::pair<std::__cxx11::basic_string<char>, vcpkg::Json::Value>, std::allocator<std::pair<std::__cxx11::basic_string<char>, vcpkg::Json::Value>>>::_Vector_impl" = type { %"struct.std::_Vector_base<std::pair<std::__cxx11::basic_string<char>, vcpkg::Json::Value>, std::allocator<std::pair<std::__cxx11::basic_string<char>, vcpkg::Json::Value>>>::_Vector_impl_data" }
%"struct.std::_Vector_base<std::pair<std::__cxx11::basic_string<char>, vcpkg::Json::Value>, std::allocator<std::pair<std::__cxx11::basic_string<char>, vcpkg::Json::Value>>>::_Vector_impl_data" = type { ptr, ptr, ptr }
%"struct.vcpkg::ConfigurationAndSource" = type <{ %"struct.vcpkg::Configuration", %"struct.vcpkg::Path", i32, [4 x i8] }>
%"class.std::vector.10" = type { %"struct.std::_Vector_base.11" }
%"struct.std::_Vector_base.11" = type { %"struct.std::_Vector_base<vcpkg::Path, std::allocator<vcpkg::Path>>::_Vector_impl" }
%"struct.std::_Vector_base<vcpkg::Path, std::allocator<vcpkg::Path>>::_Vector_impl" = type { %"struct.std::_Vector_base<vcpkg::Path, std::allocator<vcpkg::Path>>::_Vector_impl_data" }
%"struct.std::_Vector_base<vcpkg::Path, std::allocator<vcpkg::Path>>::_Vector_impl_data" = type { ptr, ptr, ptr }
%"struct.vcpkg::VcpkgPaths" = type { %"struct.vcpkg::Path", %"struct.vcpkg::Path", %"class.std::unique_ptr", ptr, ptr, ptr, %"struct.vcpkg::Path", %"struct.vcpkg::Path", %"struct.vcpkg::Path", %"struct.vcpkg::Path", %"struct.vcpkg::Path", %"struct.vcpkg::Path", %"struct.vcpkg::Path", %"struct.vcpkg::Path", %"class.std::vector.10", %"struct.vcpkg::OverlayPortPaths" }
%"class.std::unique_ptr" = type { %"struct.std::__uniq_ptr_data" }
%"struct.std::__uniq_ptr_data" = type { %"class.std::__uniq_ptr_impl" }
%"class.std::__uniq_ptr_impl" = type { %"class.std::tuple" }
%"class.std::tuple" = type { %"struct.std::_Tuple_impl" }
%"struct.std::_Tuple_impl" = type { %"struct.std::_Head_base.9" }
%"struct.std::_Head_base.9" = type { ptr }
%"struct.vcpkg::OverlayPortPaths" = type { %"struct.vcpkg::Optional", %"class.std::vector.10" }
%"struct.(anonymous namespace)::VcpkgPathsImplStage1" = type { %"struct.(anonymous namespace)::VcpkgPathsImplStage0", ptr, %"struct.vcpkg::FeatureFlagSettings", %"struct.vcpkg::Path", %"struct.vcpkg::BundleSettings", %"struct.vcpkg::AssetCachingSettings", %"struct.vcpkg::Path", %"struct.vcpkg::Path", %"struct.vcpkg::Path", %"struct.vcpkg::Path" }
%"struct.(anonymous namespace)::VcpkgPathsImplStage0" = type { %"struct.vcpkg::Lazy", %"struct.vcpkg::Lazy.47", %"struct.vcpkg::Lazy.54", %"struct.vcpkg::Lazy.62", %"struct.vcpkg::Optional.64" }
%"struct.vcpkg::Lazy" = type <{ %"struct.vcpkg::TripletDatabase", i8, [7 x i8] }>
%"struct.vcpkg::TripletDatabase" = type { %"struct.vcpkg::Path", %"struct.vcpkg::Path", %"class.std::vector.42" }
%"class.std::vector.42" = type { %"struct.std::_Vector_base.43" }
%"struct.std::_Vector_base.43" = type { %"struct.std::_Vector_base<vcpkg::TripletFile, std::allocator<vcpkg::TripletFile>>::_Vector_impl" }
%"struct.std::_Vector_base<vcpkg::TripletFile, std::allocator<vcpkg::TripletFile>>::_Vector_impl" = type { %"struct.std::_Vector_base<vcpkg::TripletFile, std::allocator<vcpkg::TripletFile>>::_Vector_impl_data" }
%"struct.std::_Vector_base<vcpkg::TripletFile, std::allocator<vcpkg::TripletFile>>::_Vector_impl_data" = type { ptr, ptr, ptr }
%"struct.vcpkg::Lazy.47" = type <{ %"struct.vcpkg::ToolsetsInformation", i8, [7 x i8] }>
%"struct.vcpkg::ToolsetsInformation" = type { %"class.std::vector.48" }
%"class.std::vector.48" = type { %"struct.std::_Vector_base.49" }
%"struct.std::_Vector_base.49" = type { %"struct.std::_Vector_base<vcpkg::Toolset, std::allocator<vcpkg::Toolset>>::_Vector_impl" }
%"struct.std::_Vector_base<vcpkg::Toolset, std::allocator<vcpkg::Toolset>>::_Vector_impl" = type { %"struct.std::_Vector_base<vcpkg::Toolset, std::allocator<vcpkg::Toolset>>::_Vector_impl_data" }
%"struct.std::_Vector_base<vcpkg::Toolset, std::allocator<vcpkg::Toolset>>::_Vector_impl_data" = type { ptr, ptr, ptr }
%"struct.vcpkg::Lazy.54" = type <{ %"class.std::map.55", i8, [7 x i8] }>
%"class.std::map.55" = type { %"class.std::_Rb_tree.56" }
%"class.std::_Rb_tree.56" = type { %"struct.std::_Rb_tree<std::__cxx11::basic_string<char>, std::pair<const std::__cxx11::basic_string<char>, std::__cxx11::basic_string<char>>, std::_Select1st<std::pair<const std::__cxx11::basic_string<char>, std::__cxx11::basic_string<char>>>, std::less<std::__cxx11::basic_string<char>>>::_Rb_tree_impl" }
%"struct.std::_Rb_tree<std::__cxx11::basic_string<char>, std::pair<const std::__cxx11::basic_string<char>, std::__cxx11::basic_string<char>>, std::_Select1st<std::pair<const std::__cxx11::basic_string<char>, std::__cxx11::basic_string<char>>>, std::less<std::__cxx11::basic_string<char>>>::_Rb_tree_impl" = type { [8 x i8], %"struct.std::_Rb_tree_header" }
%"struct.std::_Rb_tree_header" = type { %"struct.std::_Rb_tree_node_base", i64 }
%"struct.std::_Rb_tree_node_base" = type { i32, ptr, ptr, ptr }
%"struct.vcpkg::Lazy.62" = type <{ %"class.std::__cxx11::basic_string", i8, [7 x i8] }>
%"struct.vcpkg::Optional.64" = type { %"struct.vcpkg::details::OptionalStorage.65" }
%"struct.vcpkg::details::OptionalStorage.65" = type { %"struct.vcpkg::details::OptionalStorageDtor.66" }
%"struct.vcpkg::details::OptionalStorageDtor.66" = type { i8, [7 x i8], %union.anon.67 }
%union.anon.67 = type { %"struct.vcpkg::LockFile" }
%"struct.vcpkg::LockFile" = type <{ %"class.std::multimap", i8, [7 x i8] }>
%"class.std::multimap" = type { %"class.std::_Rb_tree.68" }
%"class.std::_Rb_tree.68" = type { %"struct.std::_Rb_tree<std::__cxx11::basic_string<char>, std::pair<const std::__cxx11::basic_string<char>, vcpkg::LockFile::EntryData>, std::_Select1st<std::pair<const std::__cxx11::basic_string<char>, vcpkg::LockFile::EntryData>>, std::less<void>>::_Rb_tree_impl" }
%"struct.std::_Rb_tree<std::__cxx11::basic_string<char>, std::pair<const std::__cxx11::basic_string<char>, vcpkg::LockFile::EntryData>, std::_Select1st<std::pair<const std::__cxx11::basic_string<char>, vcpkg::LockFile::EntryData>>, std::less<void>>::_Rb_tree_impl" = type { [8 x i8], %"struct.std::_Rb_tree_header" }
%"struct.vcpkg::FeatureFlagSettings" = type { i8, i8, i8, i8, i8 }
%"struct.vcpkg::BundleSettings" = type { i8, i8, %"struct.vcpkg::Optional.16", i32, %"struct.vcpkg::Optional.16" }
%"struct.vcpkg::AssetCachingSettings" = type { %"struct.vcpkg::Optional.16", %"class.std::vector", %"struct.vcpkg::Optional.16", %"class.std::vector", %"class.std::vector", i8, %"struct.vcpkg::Optional.16" }
%"struct.vcpkg::VcpkgPathsImpl" = type { %"struct.(anonymous namespace)::VcpkgPathsImplStage1", %"struct.vcpkg::Path", %"struct.vcpkg::Path", %"struct.vcpkg::Path", %"struct.vcpkg::Path", %"struct.vcpkg::Path", %"struct.vcpkg::Path", %"struct.vcpkg::Optional.73", %"struct.vcpkg::Optional", %"struct.vcpkg::Optional", %"class.std::unique_ptr.77", %"struct.vcpkg::EnvCache", %"class.std::vector.10", %"struct.vcpkg::Path", %"class.std::unique_ptr.96", %"struct.vcpkg::Optional.104", %"struct.vcpkg::ConfigurationAndSource" }
%"struct.vcpkg::Optional.73" = type { %"struct.vcpkg::details::OptionalStorage.74" }
%"struct.vcpkg::details::OptionalStorage.74" = type { %"struct.vcpkg::details::OptionalStorageDtor.75" }
%"struct.vcpkg::details::OptionalStorageDtor.75" = type { i8, %union.anon.76 }
%union.anon.76 = type { %"struct.vcpkg::InstalledPaths" }
%"struct.vcpkg::InstalledPaths" = type { %"struct.vcpkg::Path" }
%"class.std::unique_ptr.77" = type { %"struct.std::__uniq_ptr_data.78" }
%"struct.std::__uniq_ptr_data.78" = type { %"class.std::__uniq_ptr_impl.79" }
%"class.std::__uniq_ptr_impl.79" = type { %"class.std::tuple.80" }
%"class.std::tuple.80" = type { %"struct.std::_Tuple_impl.81" }
%"struct.std::_Tuple_impl.81" = type { %"struct.std::_Head_base.84" }
%"struct.std::_Head_base.84" = type { ptr }
%"struct.vcpkg::EnvCache" = type <{ %"struct.vcpkg::Cache", %"struct.vcpkg::Cache.90", i8, [7 x i8] }>
%"struct.vcpkg::Cache" = type { %"class.std::map.85" }
%"class.std::map.85" = type { %"class.std::_Rb_tree.86" }
%"class.std::_Rb_tree.86" = type { %"struct.std::_Rb_tree<vcpkg::Path, std::pair<const vcpkg::Path, vcpkg::EnvCache::TripletMapEntry>, std::_Select1st<std::pair<const vcpkg::Path, vcpkg::EnvCache::TripletMapEntry>>, std::less<void>>::_Rb_tree_impl" }
%"struct.std::_Rb_tree<vcpkg::Path, std::pair<const vcpkg::Path, vcpkg::EnvCache::TripletMapEntry>, std::_Select1st<std::pair<const vcpkg::Path, vcpkg::EnvCache::TripletMapEntry>>, std::less<void>>::_Rb_tree_impl" = type { [8 x i8], %"struct.std::_Rb_tree_header" }
%"struct.vcpkg::Cache.90" = type { %"class.std::map.91" }
%"class.std::map.91" = type { %"class.std::_Rb_tree.92" }
%"class.std::_Rb_tree.92" = type { %"struct.std::_Rb_tree<vcpkg::Path, std::pair<const vcpkg::Path, std::__cxx11::basic_string<char>>, std::_Select1st<std::pair<const vcpkg::Path, std::__cxx11::basic_string<char>>>, std::less<void>>::_Rb_tree_impl" }
%"struct.std::_Rb_tree<vcpkg::Path, std::pair<const vcpkg::Path, std::__cxx11::basic_string<char>>, std::_Select1st<std::pair<const vcpkg::Path, std::__cxx11::basic_string<char>>>, std::less<void>>::_Rb_tree_impl" = type { [8 x i8], %"struct.std::_Rb_tree_header" }
%"class.std::unique_ptr.96" = type { %"struct.std::__uniq_ptr_data.97" }
%"struct.std::__uniq_ptr_data.97" = type { %"class.std::__uniq_ptr_impl.98" }
%"class.std::__uniq_ptr_impl.98" = type { %"class.std::tuple.99" }
%"class.std::tuple.99" = type { %"struct.std::_Tuple_impl.100" }
%"struct.std::_Tuple_impl.100" = type { %"struct.std::_Head_base.103" }
%"struct.std::_Head_base.103" = type { ptr }
%"struct.vcpkg::Optional.104" = type { %"struct.vcpkg::details::OptionalStorage.105" }
%"struct.vcpkg::details::OptionalStorage.105" = type { %"struct.vcpkg::details::OptionalStorageDtor.106" }
%"struct.vcpkg::details::OptionalStorageDtor.106" = type { i8, %union.anon.107 }
%union.anon.107 = type { %"struct.vcpkg::ManifestAndPath" }
%"struct.vcpkg::ManifestAndPath" = type { %"struct.vcpkg::Json::Object", %"struct.vcpkg::Path" }
%"struct.vcpkg::Optional.194" = type { %"struct.vcpkg::details::OptionalStorage.195" }
%"struct.vcpkg::details::OptionalStorage.195" = type { ptr }

; Function Attrs: mustprogress nounwind uwtable
define linkonce_odr dso_local noundef nonnull align 8 dereferenceable(8) ptr @_ZNSt10_Head_baseILm0EPN5vcpkg14VcpkgPathsImplELb0EE7_M_headERKS3_(ptr noundef nonnull align 8 dereferenceable(8) %0) #5 comdat align 2 {
  %2 = alloca ptr, align 8
  store ptr %0, ptr %2, align 8, !tbaa !1289
  %3 = load ptr, ptr %2, align 8, !tbaa !1289
  %4 = getelementptr inbounds nuw %"struct.std::_Head_base.9", ptr %3, i32 0, i32 0
  ret ptr %4
}

; Function Attrs: mustprogress nounwind uwtable
define linkonce_odr dso_local noundef nonnull align 8 dereferenceable(8) ptr @_ZNSt11_Tuple_implILm0EJPN5vcpkg14VcpkgPathsImplESt14default_deleteIS1_EEE7_M_headERKS5_(ptr noundef nonnull align 8 dereferenceable(8) %0) #5 comdat align 2 {
  %2 = alloca ptr, align 8
  store ptr %0, ptr %2, align 8, !tbaa !1285
  %3 = load ptr, ptr %2, align 8, !tbaa !1285
  %4 = call noundef nonnull align 8 dereferenceable(8) ptr @_ZNSt10_Head_baseILm0EPN5vcpkg14VcpkgPathsImplELb0EE7_M_headERKS3_(ptr noundef nonnull align 8 dereferenceable(8) %3) #12
  ret ptr %4
}

; Function Attrs: mustprogress nounwind uwtable
define linkonce_odr dso_local noundef nonnull align 8 dereferenceable(8) ptr @_ZSt12__get_helperILm0EPN5vcpkg14VcpkgPathsImplEJSt14default_deleteIS1_EEERKT0_RKSt11_Tuple_implIXT_EJS5_DpT1_EE(ptr noundef nonnull align 8 dereferenceable(8) %0) #5 comdat {
  %2 = alloca ptr, align 8
  store ptr %0, ptr %2, align 8, !tbaa !1285
  %3 = load ptr, ptr %2, align 8, !tbaa !1285
  %4 = call noundef nonnull align 8 dereferenceable(8) ptr @_ZNSt11_Tuple_implILm0EJPN5vcpkg14VcpkgPathsImplESt14default_deleteIS1_EEE7_M_headERKS5_(ptr noundef nonnull align 8 dereferenceable(8) %3) #12
  ret ptr %4
}

; Function Attrs: mustprogress nounwind uwtable
define linkonce_odr dso_local noundef nonnull align 8 dereferenceable(8) ptr @_ZSt3getILm0EJPN5vcpkg14VcpkgPathsImplESt14default_deleteIS1_EEERKNSt13tuple_elementIXT_ESt5tupleIJDpT0_EEE4typeERKS9_(ptr noundef nonnull align 8 dereferenceable(8) %0) #5 comdat {
  %2 = alloca ptr, align 8
  store ptr %0, ptr %2, align 8, !tbaa !1283
  %3 = load ptr, ptr %2, align 8, !tbaa !1283
  %4 = call noundef nonnull align 8 dereferenceable(8) ptr @_ZSt12__get_helperILm0EPN5vcpkg14VcpkgPathsImplEJSt14default_deleteIS1_EEERKT0_RKSt11_Tuple_implIXT_EJS5_DpT1_EE(ptr noundef nonnull align 8 dereferenceable(8) %3) #12
  ret ptr %4
}

; Function Attrs: mustprogress nounwind uwtable
define linkonce_odr dso_local noundef ptr @_ZNKSt15__uniq_ptr_implIN5vcpkg14VcpkgPathsImplESt14default_deleteIS1_EE6_M_ptrEv(ptr noundef nonnull align 8 dereferenceable(8) %0) #5 comdat align 2 {
  %2 = alloca ptr, align 8
  store ptr %0, ptr %2, align 8, !tbaa !1281
  %3 = load ptr, ptr %2, align 8
  %4 = getelementptr inbounds nuw %"class.std::__uniq_ptr_impl", ptr %3, i32 0, i32 0
  %5 = call noundef nonnull align 8 dereferenceable(8) ptr @_ZSt3getILm0EJPN5vcpkg14VcpkgPathsImplESt14default_deleteIS1_EEERKNSt13tuple_elementIXT_ESt5tupleIJDpT0_EEE4typeERKS9_(ptr noundef nonnull align 8 dereferenceable(8) %4) #12
  %6 = load ptr, ptr %5, align 8, !tbaa !176
  ret ptr %6
}

; Function Attrs: mustprogress nounwind uwtable
define linkonce_odr dso_local void @_ZN5vcpkg7details15OptionalStorageIRKNS_15ManifestAndPathELb1EEC2Ev(ptr noundef nonnull align 8 dereferenceable(8) %0) unnamed_addr #5 comdat align 2 {
  %2 = alloca ptr, align 8
  store ptr %0, ptr %2, align 8, !tbaa !894
  %3 = load ptr, ptr %2, align 8
  %4 = getelementptr inbounds nuw %"struct.vcpkg::details::OptionalStorage.195", ptr %3, i32 0, i32 0
  store ptr null, ptr %4, align 8, !tbaa !896
  ret void
}

; Function Attrs: mustprogress nounwind uwtable
define linkonce_odr dso_local void @_ZN5vcpkg7details15OptionalStorageIRKNS_15ManifestAndPathELb1EEC2ES4_(ptr noundef nonnull align 8 dereferenceable(8) %0, ptr noundef nonnull align 8 dereferenceable(56) %1) unnamed_addr #5 comdat align 2 {
  %3 = alloca ptr, align 8
  %4 = alloca ptr, align 8
  store ptr %0, ptr %3, align 8, !tbaa !894
  store ptr %1, ptr %4, align 8, !tbaa !122
  %5 = load ptr, ptr %3, align 8
  %6 = getelementptr inbounds nuw %"struct.vcpkg::details::OptionalStorage.195", ptr %5, i32 0, i32 0
  %7 = load ptr, ptr %4, align 8, !tbaa !122
  store ptr %7, ptr %6, align 8, !tbaa !896
  ret void
}

; Function Attrs: mustprogress nounwind uwtable
define linkonce_odr dso_local noundef ptr @_ZNKSt10unique_ptrIN5vcpkg14VcpkgPathsImplESt14default_deleteIS1_EE3getEv(ptr noundef nonnull align 8 dereferenceable(8) %0) #5 comdat align 2 {
  %2 = alloca ptr, align 8
  store ptr %0, ptr %2, align 8, !tbaa !106
  %3 = load ptr, ptr %2, align 8
  %4 = getelementptr inbounds nuw %"class.std::unique_ptr", ptr %3, i32 0, i32 0
  %5 = call noundef ptr @_ZNKSt15__uniq_ptr_implIN5vcpkg14VcpkgPathsImplESt14default_deleteIS1_EE6_M_ptrEv(ptr noundef nonnull align 8 dereferenceable(8) %4) #12
  ret ptr %5
}

; Function Attrs: mustprogress nounwind uwtable
define linkonce_odr dso_local void @_ZN5vcpkg8OptionalIRKNS_15ManifestAndPathEEC2ENS_7NullOptE(ptr noundef nonnull align 8 dereferenceable(8) %0) unnamed_addr #5 comdat align 2 {
  %2 = alloca ptr, align 8
  store ptr %0, ptr %2, align 8, !tbaa !337
  %3 = load ptr, ptr %2, align 8
  call void @_ZN5vcpkg7details15OptionalStorageIRKNS_15ManifestAndPathELb1EEC2Ev(ptr noundef nonnull align 8 dereferenceable(8) %3) #12
  ret void
}

; Function Attrs: mustprogress nounwind uwtable
define linkonce_odr dso_local void @_ZN5vcpkg8OptionalIRKNS_15ManifestAndPathEEC2IRS1_TnNSt9enable_ifIXaantsr3stdE9is_same_vINSt5decayIT_E4typeES4_Esr3stdE18is_constructible_vINS_7details15OptionalStorageIS3_Lb1EEES9_EEiE4typeELi0EEEOS9_(ptr noundef nonnull align 8 dereferenceable(8) %0, ptr noundef nonnull align 8 dereferenceable(56) %1) unnamed_addr #5 comdat align 2 {
  %3 = alloca ptr, align 8
  %4 = alloca ptr, align 8
  store ptr %0, ptr %3, align 8, !tbaa !337
  store ptr %1, ptr %4, align 8, !tbaa !122
  %5 = load ptr, ptr %3, align 8
  %6 = load ptr, ptr %4, align 8, !tbaa !122
  call void @_ZN5vcpkg7details15OptionalStorageIRKNS_15ManifestAndPathELb1EEC2ES4_(ptr noundef nonnull align 8 dereferenceable(8) %5, ptr noundef nonnull align 8 dereferenceable(56) %6) #12
  ret void
}

; Function Attrs: mustprogress nounwind uwtable
define linkonce_odr dso_local noundef ptr @_ZNR5vcpkg7details15OptionalStorageINS_15ManifestAndPathELb1EE3getEv(ptr noundef nonnull align 8 dereferenceable(64) %0) #5 comdat align 2 {
  %2 = alloca ptr, align 8
  store ptr %0, ptr %2, align 8, !tbaa !333
  %3 = load ptr, ptr %2, align 8
  %4 = getelementptr inbounds nuw %"struct.vcpkg::details::OptionalStorageDtor.106", ptr %3, i32 0, i32 0
  %5 = load i8, ptr %4, align 8, !tbaa !335, !range !111, !noundef !112
  %6 = trunc i8 %5 to i1
  br i1 %6, label %7, label %9

7:                                                ; preds = %1
  %8 = getelementptr inbounds nuw %"struct.vcpkg::details::OptionalStorageDtor.106", ptr %3, i32 0, i32 1
  br label %10

9:                                                ; preds = %1
  br label %10

10:                                               ; preds = %9, %7
  %11 = phi ptr [ %8, %7 ], [ null, %9 ]
  ret ptr %11
}

; Function Attrs: mustprogress nounwind uwtable
define linkonce_odr dso_local noundef ptr @_ZNKSt10unique_ptrIN5vcpkg14VcpkgPathsImplESt14default_deleteIS1_EEptEv(ptr noundef nonnull align 8 dereferenceable(8) %0) #5 comdat align 2 {
  %2 = alloca ptr, align 8
  store ptr %0, ptr %2, align 8, !tbaa !106
  %3 = load ptr, ptr %2, align 8
  %4 = call noundef ptr @_ZNKSt10unique_ptrIN5vcpkg14VcpkgPathsImplESt14default_deleteIS1_EE3getEv(ptr noundef nonnull align 8 dereferenceable(8) %3) #12
  ret ptr %4
}

; Function Attrs: mustprogress nounwind uwtable
define dso_local ptr @_ZNK5vcpkg10VcpkgPaths12get_manifestEv(ptr noundef nonnull align 8 dereferenceable(440) %0) #5 align 2 {
  %2 = alloca %"struct.vcpkg::Optional.194", align 8
  %3 = alloca ptr, align 8
  %4 = alloca ptr, align 8
  %5 = alloca i32, align 4
  store ptr %0, ptr %3, align 8, !tbaa !20
  %6 = load ptr, ptr %3, align 8
  call void @llvm.lifetime.start.p0(i64 8, ptr %4) #12
  %7 = getelementptr inbounds nuw %"struct.vcpkg::VcpkgPaths", ptr %6, i32 0, i32 2
  %8 = call noundef ptr @_ZNKSt10unique_ptrIN5vcpkg14VcpkgPathsImplESt14default_deleteIS1_EEptEv(ptr noundef nonnull align 8 dereferenceable(8) %7) #12
  %9 = getelementptr inbounds nuw %"struct.vcpkg::VcpkgPathsImpl", ptr %8, i32 0, i32 15
  %10 = call noundef ptr @_ZNR5vcpkg7details15OptionalStorageINS_15ManifestAndPathELb1EE3getEv(ptr noundef nonnull align 8 dereferenceable(64) %9) #12
  store ptr %10, ptr %4, align 8, !tbaa !122
  %11 = load ptr, ptr %4, align 8, !tbaa !122
  %12 = icmp ne ptr %11, null
  br i1 %12, label %13, label %15

13:                                               ; preds = %1
  %14 = load ptr, ptr %4, align 8, !tbaa !122
  call void @_ZN5vcpkg8OptionalIRKNS_15ManifestAndPathEEC2IRS1_TnNSt9enable_ifIXaantsr3stdE9is_same_vINSt5decayIT_E4typeES4_Esr3stdE18is_constructible_vINS_7details15OptionalStorageIS3_Lb1EEES9_EEiE4typeELi0EEEOS9_(ptr noundef nonnull align 8 dereferenceable(8) %2, ptr noundef nonnull align 8 dereferenceable(56) %14) #12
  store i32 1, ptr %5, align 4
  br label %16

15:                                               ; preds = %1
  store i32 0, ptr %5, align 4
  br label %16

16:                                               ; preds = %15, %13
  call void @llvm.lifetime.end.p0(i64 8, ptr %4) #12
  %17 = load i32, ptr %5, align 4
  switch i32 %17, label %23 [
    i32 0, label %18
    i32 1, label %19
  ]

18:                                               ; preds = %16
  call void @_ZN5vcpkg8OptionalIRKNS_15ManifestAndPathEEC2ENS_7NullOptE(ptr noundef nonnull align 8 dereferenceable(8) %2) #12
  br label %19

19:                                               ; preds = %18, %16
  %20 = getelementptr inbounds nuw %"struct.vcpkg::Optional.194", ptr %2, i32 0, i32 0
  %21 = getelementptr inbounds nuw %"struct.vcpkg::details::OptionalStorage.195", ptr %20, i32 0, i32 0
  %22 = load ptr, ptr %21, align 8
  ret ptr %22

23:                                               ; preds = %16
  unreachable
}