; Function Attrs: mustprogress nofree norecurse nosync nounwind willreturn memory(read, inaccessiblemem: none) uwtable
define dso_local ptr @_ZNK5vcpkg10VcpkgPaths12get_manifestEv(ptr noundef nonnull readonly align 8 captures(none) dereferenceable(440) %0) local_unnamed_addr #8 align 2 {
  %2 = getelementptr inbounds nuw i8, ptr %0, i64 64
  %3 = load ptr, ptr %2, align 8, !tbaa !46
  %4 = getelementptr inbounds nuw i8, ptr %3, i64 1248
  %5 = load i8, ptr %4, align 8, !tbaa !71, !range !27, !noundef !28
  %6 = trunc nuw i8 %5 to i1
  %7 = getelementptr inbounds nuw i8, ptr %3, i64 1256
  %.sroa.0.1 = select i1 %6, ptr %7, ptr null
  ret ptr %.sroa.0.1
}